; Function Attrs: mustprogress nofree norecurse nosync nounwind willreturn memory(argmem: read) uwtable
define hidden noundef zeroext i1 @_Z7is_zerojPKj(i32 noundef %0, ptr noundef readonly captures(none) %1) local_unnamed_addr #5 {
  %3 = icmp eq i32 %0, 0
  br i1 %3, label %._crit_edge, label %.lr.ph.preheader

.lr.ph.preheader:                                 ; preds = %2
  %wide.trip.count = zext i32 %0 to i64
  br label %.lr.ph

.lr.ph:                                           ; preds = %.lr.ph, %.lr.ph.preheader
  %indvars.iv = phi i64 [ 0, %.lr.ph.preheader ], [ %indvars.iv.next, %.lr.ph ]
  %4 = getelementptr inbounds nuw i32, ptr %1, i64 %indvars.iv
  %5 = load i32, ptr %4, align 4, !tbaa !3
  %.not = icmp eq i32 %5, 0
  %indvars.iv.next = add nuw nsw i64 %indvars.iv, 1
  %exitcond.not = icmp ne i64 %indvars.iv.next, %wide.trip.count
  %or.cond.not = select i1 %.not, i1 %exitcond.not, i1 false
  br i1 %or.cond.not, label %.lr.ph, label %._crit_edge, !llvm.loop !12

._crit_edge:                                      ; preds = %.lr.ph, %2
  %.lcssa = phi i1 [ true, %2 ], [ %.not, %.lr.ph ]
  ret i1 %.lcssa
}